target datalayout = "e-m:e-p270:32:32-p271:32:32-p272:64:64-i64:64-i128:128-f80:128-n8:16:32:64-S128"
target triple = "x86_64-pc-linux-gnu"

%"class.icu_77::SpoofImpl" = type <{ %"class.icu_77::UObject", %"class.icu_77::IcuCApiHelper", i32, ptr, ptr, ptr, i32, [4 x i8] }>
%"class.icu_77::UObject" = type { ptr }
%"class.icu_77::IcuCApiHelper" = type { i32 }

@_ZTVN6icu_779SpoofImplE = unnamed_addr constant { [5 x ptr] } { [5 x ptr] [ptr null, ptr @_ZTIN6icu_779SpoofImplE, ptr @_ZN6icu_779SpoofImplD1Ev, ptr @_ZN6icu_779SpoofImplD0Ev, ptr @_ZNK6icu_779SpoofImpl17getDynamicClassIDEv] }, align 8
@.str = private unnamed_addr constant [1 x i8] zeroinitializer, align 1
@_ZTVN6icu_777UObjectE = available_externally unnamed_addr constant { [5 x ptr] } { [5 x ptr] [ptr null, ptr @_ZTIN6icu_777UObjectE, ptr @_ZN6icu_777UObjectD1Ev, ptr @_ZN6icu_777UObjectD0Ev, ptr @_ZNK6icu_777UObject17getDynamicClassIDEv] }, align 8

; Function Attrs: inlinehint mustprogress nounwind uwtable
define internal noundef signext i8 @_ZL9U_FAILURE10UErrorCode(i32 noundef %0) #2 {
  %2 = alloca i32, align 4
  store i32 %0, ptr %2, align 4, !tbaa !30
  %3 = load i32, ptr %2, align 4, !tbaa !30
  %4 = icmp sgt i32 %3, 0
  %5 = zext i1 %4 to i8
  ret i8 %5
}

; Function Attrs: mustprogress nounwind uwtable
define linkonce_odr void @_ZN6icu_7713IcuCApiHelperI13USpoofCheckerNS_9SpoofImplELi944111087EED2Ev(ptr noundef nonnull align 4 dereferenceable(4) %0) unnamed_addr #0 comdat align 2 {
  %2 = alloca ptr, align 8
  store ptr %0, ptr %2, align 8, !tbaa !23
  %3 = load ptr, ptr %2, align 8
  %4 = getelementptr inbounds nuw %"class.icu_77::IcuCApiHelper", ptr %3, i32 0, i32 0
  store i32 0, ptr %4, align 4, !tbaa !25
  ret void
}

; Function Attrs: mustprogress uwtable
define void @_ZN6icu_779SpoofImpl9constructER10UErrorCode(ptr noundef nonnull align 8 dereferenceable(44) %0, ptr noundef nonnull align 4 dereferenceable(4) %1) #1 align 2 personality ptr @__gxx_personality_v0 {
  %3 = alloca ptr, align 8
  %4 = alloca ptr, align 8
  %5 = alloca ptr, align 8
  %6 = alloca ptr, align 8
  %7 = alloca i1, align 1
  %8 = alloca ptr, align 8
  %9 = alloca i32, align 4
  %10 = alloca i32, align 4
  store ptr %0, ptr %3, align 8, !tbaa !3
  store ptr %1, ptr %4, align 8, !tbaa !10
  %11 = load ptr, ptr %3, align 8
  %12 = getelementptr inbounds nuw %"class.icu_77::SpoofImpl", ptr %11, i32 0, i32 2
  store i32 65535, ptr %12, align 4, !tbaa !26
  %13 = getelementptr inbounds nuw %"class.icu_77::SpoofImpl", ptr %11, i32 0, i32 3
  store ptr null, ptr %13, align 8, !tbaa !13
  %14 = getelementptr inbounds nuw %"class.icu_77::SpoofImpl", ptr %11, i32 0, i32 4
  store ptr null, ptr %14, align 8, !tbaa !27
  %15 = getelementptr inbounds nuw %"class.icu_77::SpoofImpl", ptr %11, i32 0, i32 5
  store ptr null, ptr %15, align 8, !tbaa !28
  %16 = getelementptr inbounds nuw %"class.icu_77::SpoofImpl", ptr %11, i32 0, i32 6
  store i32 805306368, ptr %16, align 8, !tbaa !29
  %17 = load ptr, ptr %4, align 8, !tbaa !10
  %18 = load i32, ptr %17, align 4, !tbaa !30
  %19 = call noundef signext i8 @_ZL9U_FAILURE10UErrorCode(i32 noundef %18)
  %20 = icmp ne i8 %19, 0
  br i1 %20, label %21, label %22

21:                                               ; preds = %2
  br label %55

22:                                               ; preds = %2
  call void @llvm.lifetime.start.p0(i64 8, ptr %5) #15
  %23 = call noundef ptr @_ZN6icu_777UMemorynwEm(i64 noundef 200) #15
  %24 = icmp eq ptr %23, null
  store i1 false, ptr %7, align 1
  br i1 %24, label %27, label %25

25:                                               ; preds = %22
  store ptr %23, ptr %6, align 8
  store i1 true, ptr %7, align 1
  invoke void @_ZN6icu_7710UnicodeSetC1Eii(ptr noundef nonnull align 8 dereferenceable(200) %23, i32 noundef 0, i32 noundef 1114111)
          to label %26 unwind label %42

26:                                               ; preds = %25
  br label %27

27:                                               ; preds = %26, %22
  %28 = phi ptr [ %23, %26 ], [ null, %22 ]
  store ptr %28, ptr %5, align 8, !tbaa !32
  %29 = load ptr, ptr %5, align 8, !tbaa !32
  %30 = getelementptr inbounds nuw %"class.icu_77::SpoofImpl", ptr %11, i32 0, i32 4
  store ptr %29, ptr %30, align 8, !tbaa !27
  %31 = call ptr @uprv_strdup_77(ptr noundef @.str)
  %32 = getelementptr inbounds nuw %"class.icu_77::SpoofImpl", ptr %11, i32 0, i32 5
  store ptr %31, ptr %32, align 8, !tbaa !28
  %33 = getelementptr inbounds nuw %"class.icu_77::SpoofImpl", ptr %11, i32 0, i32 4
  %34 = load ptr, ptr %33, align 8, !tbaa !27
  %35 = icmp eq ptr %34, null
  br i1 %35, label %40, label %36

36:                                               ; preds = %27
  %37 = getelementptr inbounds nuw %"class.icu_77::SpoofImpl", ptr %11, i32 0, i32 5
  %38 = load ptr, ptr %37, align 8, !tbaa !28
  %39 = icmp eq ptr %38, null
  br i1 %39, label %40, label %50

40:                                               ; preds = %36, %27
  %41 = load ptr, ptr %4, align 8, !tbaa !10
  store i32 7, ptr %41, align 4, !tbaa !30
  store i32 1, ptr %10, align 4
  br label %53

42:                                               ; preds = %25
  %43 = landingpad { ptr, i32 }
          cleanup
  %44 = extractvalue { ptr, i32 } %43, 0
  store ptr %44, ptr %8, align 8
  %45 = extractvalue { ptr, i32 } %43, 1
  store i32 %45, ptr %9, align 4
  %46 = load i1, ptr %7, align 1
  br i1 %46, label %47, label %49

47:                                               ; preds = %42
  %48 = load ptr, ptr %6, align 8
  call void @_ZN6icu_777UMemorydlEPv(ptr noundef %48) #15
  br label %49

49:                                               ; preds = %47, %42
  call void @llvm.lifetime.end.p0(i64 8, ptr %5) #15
  br label %56

50:                                               ; preds = %36
  %51 = load ptr, ptr %5, align 8, !tbaa !32
  %52 = call noundef ptr @_ZN6icu_7710UnicodeSet6freezeEv(ptr noundef nonnull align 8 dereferenceable(200) %51)
  store i32 0, ptr %10, align 4
  br label %53

53:                                               ; preds = %50, %40
  call void @llvm.lifetime.end.p0(i64 8, ptr %5) #15
  %54 = load i32, ptr %10, align 4
  switch i32 %54, label %61 [
    i32 0, label %55
    i32 1, label %55
  ]

55:                                               ; preds = %21, %53, %53
  ret void

56:                                               ; preds = %49
  %57 = load ptr, ptr %8, align 8
  %58 = load i32, ptr %9, align 4
  %59 = insertvalue { ptr, i32 } poison, ptr %57, 0
  %60 = insertvalue { ptr, i32 } %59, i32 %58, 1
  resume { ptr, i32 } %60

61:                                               ; preds = %53
  unreachable
}

; Function Attrs: inlinehint mustprogress nounwind uwtable
define linkonce_odr void @_ZN6icu_7713IcuCApiHelperI13USpoofCheckerNS_9SpoofImplELi944111087EEC2Ev(ptr noundef nonnull align 4 dereferenceable(4) %0) unnamed_addr #2 comdat align 2 {
  %2 = alloca ptr, align 8
  store ptr %0, ptr %2, align 8, !tbaa !23
  %3 = load ptr, ptr %2, align 8
  %4 = getelementptr inbounds nuw %"class.icu_77::IcuCApiHelper", ptr %3, i32 0, i32 0
  store i32 944111087, ptr %4, align 4, !tbaa !25
  ret void
}

; Function Attrs: inlinehint mustprogress nounwind uwtable
define linkonce_odr void @_ZN6icu_777UObjectC2Ev(ptr noundef nonnull align 8 dereferenceable(8) %0) unnamed_addr #2 comdat align 2 {
  %2 = alloca ptr, align 8
  store ptr %0, ptr %2, align 8, !tbaa !21
  %3 = load ptr, ptr %2, align 8
  store ptr getelementptr inbounds inrange(-16, 24) ({ [5 x ptr] }, ptr @_ZTVN6icu_777UObjectE, i32 0, i32 0, i32 2), ptr %3, align 8, !tbaa !11
  ret void
}

; Function Attrs: mustprogress uwtable
define void @_ZN6icu_779SpoofImplC2EPNS_9SpoofDataER10UErrorCode(ptr noundef nonnull align 8 dereferenceable(44) %0, ptr noundef %1, ptr noundef nonnull align 4 dereferenceable(4) %2) unnamed_addr #1 align 2 personality ptr @__gxx_personality_v0 {
  %4 = alloca ptr, align 8
  %5 = alloca ptr, align 8
  %6 = alloca ptr, align 8
  %7 = alloca ptr, align 8
  %8 = alloca i32, align 4
  store ptr %0, ptr %4, align 8, !tbaa !3
  store ptr %1, ptr %5, align 8, !tbaa !8
  store ptr %2, ptr %6, align 8, !tbaa !10
  %9 = load ptr, ptr %4, align 8
  call void @_ZN6icu_777UObjectC2Ev(ptr noundef nonnull align 8 dereferenceable(8) %9) #15
  %10 = getelementptr inbounds i8, ptr %9, i64 8
  call void @_ZN6icu_7713IcuCApiHelperI13USpoofCheckerNS_9SpoofImplELi944111087EEC2Ev(ptr noundef nonnull align 4 dereferenceable(4) %10) #15
  store ptr getelementptr inbounds inrange(-16, 24) ({ [5 x ptr] }, ptr @_ZTVN6icu_779SpoofImplE, i32 0, i32 0, i32 2), ptr %9, align 8, !tbaa !11
  %11 = load ptr, ptr %6, align 8, !tbaa !10
  invoke void @_ZN6icu_779SpoofImpl9constructER10UErrorCode(ptr noundef nonnull align 8 dereferenceable(44) %9, ptr noundef nonnull align 4 dereferenceable(4) %11)
          to label %12 unwind label %15

12:                                               ; preds = %3
  %13 = load ptr, ptr %5, align 8, !tbaa !8
  %14 = getelementptr inbounds nuw %"class.icu_77::SpoofImpl", ptr %9, i32 0, i32 3
  store ptr %13, ptr %14, align 8, !tbaa !13
  ret void

15:                                               ; preds = %3
  %16 = landingpad { ptr, i32 }
          cleanup
  %17 = extractvalue { ptr, i32 } %16, 0
  store ptr %17, ptr %7, align 8
  %18 = extractvalue { ptr, i32 } %16, 1
  store i32 %18, ptr %8, align 4
  %19 = getelementptr inbounds i8, ptr %9, i64 8
  call void @_ZN6icu_7713IcuCApiHelperI13USpoofCheckerNS_9SpoofImplELi944111087EED2Ev(ptr noundef nonnull align 4 dereferenceable(4) %19) #15
  call void @_ZN6icu_777UObjectD2Ev(ptr noundef nonnull align 8 dereferenceable(8) %9) #15
  br label %20

20:                                               ; preds = %15
  %21 = load ptr, ptr %7, align 8
  %22 = load i32, ptr %8, align 4
  %23 = insertvalue { ptr, i32 } poison, ptr %21, 0
  %24 = insertvalue { ptr, i32 } %23, i32 %22, 1
  resume { ptr, i32 } %24
}