; Function Attrs: mustprogress uwtable
define void @_ZN6icu_779SpoofImplC2EPNS_9SpoofDataER10UErrorCode(ptr noundef nonnull align 8 dereferenceable(44) initializes((0, 44)) %0, ptr noundef %1, ptr noundef nonnull align 4 captures(none) dereferenceable(4) %2) unnamed_addr #1 align 2 personality ptr @__gxx_personality_v0 {
  %4 = getelementptr inbounds nuw i8, ptr %0, i64 8
  store i32 944111087, ptr %4, align 8, !tbaa !3
  store ptr getelementptr inbounds nuw inrange(-16, 24) (i8, ptr @_ZTVN6icu_779SpoofImplE, i64 16), ptr %0, align 8, !tbaa !8
  %5 = getelementptr inbounds nuw i8, ptr %0, i64 12
  store i32 65535, ptr %5, align 4, !tbaa !10
  %6 = getelementptr inbounds nuw i8, ptr %0, i64 16
  %7 = getelementptr inbounds nuw i8, ptr %0, i64 24
  %8 = getelementptr inbounds nuw i8, ptr %0, i64 32
  %9 = getelementptr inbounds nuw i8, ptr %0, i64 40
  tail call void @llvm.memset.p0.i64(ptr noundef nonnull align 8 dereferenceable(24) %6, i8 0, i64 24, i1 false)
  store i32 805306368, ptr %9, align 8, !tbaa !18
  %10 = load i32, ptr %2, align 4, !tbaa !19
  %11 = icmp slt i32 %10, 1
  br i1 %11, label %12, label %_ZN6icu_779SpoofImpl9constructER10UErrorCode.exit

12:                                               ; preds = %3
  %13 = tail call noundef ptr @_ZN6icu_777UMemorynwEm(i64 noundef 200) #21
  %14 = icmp eq ptr %13, null
  br i1 %14, label %16, label %15

15:                                               ; preds = %12
  invoke void @_ZN6icu_7710UnicodeSetC1Eii(ptr noundef nonnull align 8 dereferenceable(200) %13, i32 noundef 0, i32 noundef 1114111)
          to label %16 unwind label %22

16:                                               ; preds = %15, %12
  store ptr %13, ptr %7, align 8, !tbaa !21
  %17 = invoke ptr @uprv_strdup_77(ptr noundef nonnull @.str)
          to label %.noexc unwind label %26

.noexc:                                           ; preds = %16
  store ptr %17, ptr %8, align 8, !tbaa !22
  %18 = load ptr, ptr %7, align 8, !tbaa !21
  %19 = icmp eq ptr %18, null
  %20 = icmp eq ptr %17, null
  %or.cond.i = select i1 %19, i1 true, i1 %20
  br i1 %or.cond.i, label %21, label %24

21:                                               ; preds = %.noexc
  store i32 7, ptr %2, align 4, !tbaa !19
  br label %_ZN6icu_779SpoofImpl9constructER10UErrorCode.exit

22:                                               ; preds = %15
  %23 = landingpad { ptr, i32 }
          cleanup
  tail call void @_ZN6icu_777UMemorydlEPv(ptr noundef nonnull %13) #21
  br label %.body

24:                                               ; preds = %.noexc
  %25 = invoke noundef ptr @_ZN6icu_7710UnicodeSet6freezeEv(ptr noundef nonnull align 8 dereferenceable(200) %13)
          to label %_ZN6icu_779SpoofImpl9constructER10UErrorCode.exit unwind label %26

_ZN6icu_779SpoofImpl9constructER10UErrorCode.exit: ; preds = %21, %3, %24
  store ptr %1, ptr %6, align 8, !tbaa !23
  ret void

26:                                               ; preds = %24, %16
  %27 = landingpad { ptr, i32 }
          cleanup
  br label %.body

.body:                                            ; preds = %22, %26
  %eh.lpad-body = phi { ptr, i32 } [ %27, %26 ], [ %23, %22 ]
  store i32 0, ptr %4, align 8, !tbaa !3
  tail call void @_ZN6icu_777UObjectD2Ev(ptr noundef nonnull align 8 dereferenceable(8) %0) #21
  resume { ptr, i32 } %eh.lpad-body
}